target datalayout = "e-m:e-p270:32:32-p271:32:32-p272:64:64-i64:64-i128:128-f80:128-n8:16:32:64-S128"
target triple = "x86_64-pc-linux-gnu"

%struct.black_TWorker_ = type { i32, i32, i32, i32, i32, ptr, ptr, ptr, ptr, i32, i8, i64, i64, i64, i64, i16, i32, ptr, ptr, ptr, i32, %struct.FT_Outline_, i32, i32, i32, ptr, ptr, ptr, ptr, ptr, ptr }
%struct.FT_Outline_ = type { i16, i16, ptr, ptr, ptr, i32 }

; Function Attrs: nounwind uwtable
define internal void @Horizontal_Sweep_Drop(ptr noundef %0, i32 noundef %1, i64 noundef %2, i64 noundef %3) #0 {
  %5 = alloca ptr, align 8
  %6 = alloca i32, align 4
  %7 = alloca i64, align 8
  %8 = alloca i64, align 8
  %9 = alloca i32, align 4
  %10 = alloca i32, align 4
  %11 = alloca ptr, align 8
  %12 = alloca i32, align 4
  %13 = alloca i32, align 4
  store ptr %0, ptr %5, align 8, !tbaa !105
  store i32 %1, ptr %6, align 4, !tbaa !15
  store i64 %2, ptr %7, align 8, !tbaa !23
  store i64 %3, ptr %8, align 8, !tbaa !23
  call void @llvm.lifetime.start.p0(i64 4, ptr %9) #5
  %14 = load i64, ptr %7, align 8, !tbaa !23
  %15 = load ptr, ptr %5, align 8, !tbaa !105
  %16 = getelementptr inbounds nuw %struct.black_TWorker_, ptr %15, i32 0, i32 0
  %17 = load i32, ptr %16, align 8, !tbaa !115
  %18 = zext i32 %17 to i64
  %19 = ashr i64 %14, %18
  %20 = trunc i64 %19 to i32
  store i32 %20, ptr %9, align 4, !tbaa !15
  call void @llvm.lifetime.start.p0(i64 4, ptr %10) #5
  %21 = load i64, ptr %8, align 8, !tbaa !23
  %22 = load ptr, ptr %5, align 8, !tbaa !105
  %23 = getelementptr inbounds nuw %struct.black_TWorker_, ptr %22, i32 0, i32 0
  %24 = load i32, ptr %23, align 8, !tbaa !115
  %25 = zext i32 %24 to i64
  %26 = ashr i64 %21, %25
  %27 = trunc i64 %26 to i32
  store i32 %27, ptr %10, align 4, !tbaa !15
  call void @llvm.lifetime.start.p0(i64 8, ptr %11) #5
  call void @llvm.lifetime.start.p0(i64 4, ptr %12) #5
  %28 = load i32, ptr %9, align 4, !tbaa !15
  %29 = icmp slt i32 %28, 0
  br i1 %29, label %36, label %30

30:                                               ; preds = %4
  %31 = load i32, ptr %9, align 4, !tbaa !15
  %32 = load ptr, ptr %5, align 8, !tbaa !105
  %33 = getelementptr inbounds nuw %struct.black_TWorker_, ptr %32, i32 0, i32 22
  %34 = load i32, ptr %33, align 8, !tbaa !52
  %35 = icmp sgt i32 %31, %34
  br i1 %35, label %36, label %38

36:                                               ; preds = %30, %4
  %37 = load i32, ptr %10, align 4, !tbaa !15
  store i32 %37, ptr %9, align 4, !tbaa !15
  br label %75

38:                                               ; preds = %30
  %39 = load i32, ptr %10, align 4, !tbaa !15
  %40 = icmp sge i32 %39, 0
  br i1 %40, label %41, label %74

41:                                               ; preds = %38
  %42 = load i32, ptr %10, align 4, !tbaa !15
  %43 = load ptr, ptr %5, align 8, !tbaa !105
  %44 = getelementptr inbounds nuw %struct.black_TWorker_, ptr %43, i32 0, i32 22
  %45 = load i32, ptr %44, align 8, !tbaa !52
  %46 = icmp sle i32 %42, %45
  br i1 %46, label %47, label %74

47:                                               ; preds = %41
  %48 = load ptr, ptr %5, align 8, !tbaa !105
  %49 = getelementptr inbounds nuw %struct.black_TWorker_, ptr %48, i32 0, i32 25
  %50 = load ptr, ptr %49, align 8, !tbaa !59
  %51 = load i32, ptr %6, align 4, !tbaa !15
  %52 = ashr i32 %51, 3
  %53 = sext i32 %52 to i64
  %54 = getelementptr inbounds i8, ptr %50, i64 %53
  %55 = load i32, ptr %10, align 4, !tbaa !15
  %56 = load ptr, ptr %5, align 8, !tbaa !105
  %57 = getelementptr inbounds nuw %struct.black_TWorker_, ptr %56, i32 0, i32 24
  %58 = load i32, ptr %57, align 8, !tbaa !58
  %59 = mul nsw i32 %55, %58
  %60 = sext i32 %59 to i64
  %61 = sub i64 0, %60
  %62 = getelementptr inbounds i8, ptr %54, i64 %61
  store ptr %62, ptr %11, align 8, !tbaa !21
  %63 = load i32, ptr %6, align 4, !tbaa !15
  %64 = and i32 %63, 7
  %65 = ashr i32 128, %64
  store i32 %65, ptr %12, align 4, !tbaa !15
  %66 = load ptr, ptr %11, align 8, !tbaa !21
  %67 = load i8, ptr %66, align 1, !tbaa !121
  %68 = zext i8 %67 to i32
  %69 = load i32, ptr %12, align 4, !tbaa !15
  %70 = and i32 %68, %69
  %71 = icmp ne i32 %70, 0
  br i1 %71, label %72, label %73

72:                                               ; preds = %47
  store i32 1, ptr %13, align 4
  br label %113

73:                                               ; preds = %47
  br label %74

74:                                               ; preds = %73, %41, %38
  br label %75

75:                                               ; preds = %74, %36
  %76 = load i32, ptr %9, align 4, !tbaa !15
  %77 = icmp sge i32 %76, 0
  br i1 %77, label %78, label %112

78:                                               ; preds = %75
  %79 = load i32, ptr %9, align 4, !tbaa !15
  %80 = load ptr, ptr %5, align 8, !tbaa !105
  %81 = getelementptr inbounds nuw %struct.black_TWorker_, ptr %80, i32 0, i32 22
  %82 = load i32, ptr %81, align 8, !tbaa !52
  %83 = icmp sle i32 %79, %82
  br i1 %83, label %84, label %112

84:                                               ; preds = %78
  %85 = load ptr, ptr %5, align 8, !tbaa !105
  %86 = getelementptr inbounds nuw %struct.black_TWorker_, ptr %85, i32 0, i32 25
  %87 = load ptr, ptr %86, align 8, !tbaa !59
  %88 = load i32, ptr %6, align 4, !tbaa !15
  %89 = ashr i32 %88, 3
  %90 = sext i32 %89 to i64
  %91 = getelementptr inbounds i8, ptr %87, i64 %90
  %92 = load i32, ptr %9, align 4, !tbaa !15
  %93 = load ptr, ptr %5, align 8, !tbaa !105
  %94 = getelementptr inbounds nuw %struct.black_TWorker_, ptr %93, i32 0, i32 24
  %95 = load i32, ptr %94, align 8, !tbaa !58
  %96 = mul nsw i32 %92, %95
  %97 = sext i32 %96 to i64
  %98 = sub i64 0, %97
  %99 = getelementptr inbounds i8, ptr %91, i64 %98
  store ptr %99, ptr %11, align 8, !tbaa !21
  %100 = load i32, ptr %6, align 4, !tbaa !15
  %101 = and i32 %100, 7
  %102 = ashr i32 128, %101
  store i32 %102, ptr %12, align 4, !tbaa !15
  br label %103

103:                                              ; preds = %84
  br label %104

104:                                              ; preds = %103
  br label %105

105:                                              ; preds = %104
  %106 = load i32, ptr %12, align 4, !tbaa !15
  %107 = load ptr, ptr %11, align 8, !tbaa !21
  %108 = load i8, ptr %107, align 1, !tbaa !121
  %109 = zext i8 %108 to i32
  %110 = or i32 %109, %106
  %111 = trunc i32 %110 to i8
  store i8 %111, ptr %107, align 1, !tbaa !121
  br label %112

112:                                              ; preds = %105, %78, %75
  store i32 0, ptr %13, align 4
  br label %113

113:                                              ; preds = %112, %72
  call void @llvm.lifetime.end.p0(i64 4, ptr %12) #5
  call void @llvm.lifetime.end.p0(i64 8, ptr %11) #5
  call void @llvm.lifetime.end.p0(i64 4, ptr %10) #5
  call void @llvm.lifetime.end.p0(i64 4, ptr %9) #5
  %114 = load i32, ptr %13, align 4
  switch i32 %114, label %116 [
    i32 0, label %115
    i32 1, label %115
  ]

115:                                              ; preds = %113, %113
  ret void

116:                                              ; preds = %113
  unreachable
}