; Function Attrs: mustprogress nofree norecurse nosync nounwind willreturn memory(readwrite, inaccessiblemem: none) uwtable
define internal void @Horizontal_Sweep_Drop(ptr noundef readonly captures(none) %0, i32 noundef %1, i64 noundef %2, i64 noundef %3) #6 {
  %5 = load i32, ptr %0, align 8, !tbaa !86
  %6 = zext i32 %5 to i64
  %7 = ashr i64 %2, %6
  %8 = trunc i64 %7 to i32
  %9 = ashr i64 %3, %6
  %10 = trunc i64 %9 to i32
  %11 = icmp slt i32 %8, 0
  br i1 %11, label %35, label %12

12:                                               ; preds = %4
  %13 = getelementptr inbounds nuw i8, ptr %0, i64 176
  %14 = load i32, ptr %13, align 8, !tbaa !37
  %15 = icmp slt i32 %14, %8
  br i1 %15, label %35, label %16

16:                                               ; preds = %12
  %17 = icmp slt i32 %10, 0
  %.not = icmp slt i32 %14, %10
  %or.cond = or i1 %17, %.not
  br i1 %or.cond, label %.thread, label %18

18:                                               ; preds = %16
  %19 = getelementptr inbounds nuw i8, ptr %0, i64 192
  %20 = load ptr, ptr %19, align 8, !tbaa !44
  %21 = ashr i32 %1, 3
  %22 = sext i32 %21 to i64
  %23 = getelementptr inbounds i8, ptr %20, i64 %22
  %24 = getelementptr inbounds nuw i8, ptr %0, i64 184
  %25 = load i32, ptr %24, align 8, !tbaa !43
  %26 = mul nsw i32 %25, %10
  %27 = sext i32 %26 to i64
  %28 = sub nsw i64 0, %27
  %29 = getelementptr inbounds i8, ptr %23, i64 %28
  %30 = and i32 %1, 7
  %31 = lshr exact i32 128, %30
  %32 = load i8, ptr %29, align 1, !tbaa !96
  %33 = zext i8 %32 to i32
  %34 = and i32 %31, %33
  %.not30 = icmp eq i32 %34, 0
  br i1 %.not30, label %.thread, label %55

35:                                               ; preds = %4, %12
  %36 = icmp sgt i32 %10, -1
  br i1 %36, label %..thread_crit_edge, label %55

..thread_crit_edge:                               ; preds = %35
  %.phi.trans.insert = getelementptr inbounds nuw i8, ptr %0, i64 176
  %.pre = load i32, ptr %.phi.trans.insert, align 8, !tbaa !37
  br label %.thread

.thread:                                          ; preds = %..thread_crit_edge, %16, %18
  %37 = phi i32 [ %.pre, %..thread_crit_edge ], [ %14, %18 ], [ %14, %16 ]
  %.033 = phi i32 [ %10, %..thread_crit_edge ], [ %8, %18 ], [ %8, %16 ]
  %.not31 = icmp sgt i32 %.033, %37
  br i1 %.not31, label %55, label %38

38:                                               ; preds = %.thread
  %39 = getelementptr inbounds nuw i8, ptr %0, i64 192
  %40 = load ptr, ptr %39, align 8, !tbaa !44
  %41 = ashr i32 %1, 3
  %42 = sext i32 %41 to i64
  %43 = getelementptr inbounds i8, ptr %40, i64 %42
  %44 = getelementptr inbounds nuw i8, ptr %0, i64 184
  %45 = load i32, ptr %44, align 8, !tbaa !43
  %46 = mul nsw i32 %45, %.033
  %47 = sext i32 %46 to i64
  %48 = sub nsw i64 0, %47
  %49 = getelementptr inbounds i8, ptr %43, i64 %48
  %50 = and i32 %1, 7
  %51 = lshr exact i32 128, %50
  %52 = load i8, ptr %49, align 1, !tbaa !96
  %53 = trunc nuw i32 %51 to i8
  %54 = or i8 %52, %53
  store i8 %54, ptr %49, align 1, !tbaa !96
  br label %55

55:                                               ; preds = %35, %.thread, %38, %18
  ret void
}